; Function Attrs: mustprogress uwtable
define i32 @uregex_replaceAll_75(ptr noundef %regexp2, ptr noundef %replacementText, i32 noundef %replacementLength, ptr noundef %destBuf, i32 noundef %destCapacity, ptr noundef %status) local_unnamed_addr #5 {
entry:
  %destBuf.addr = alloca ptr, align 8
  %destCapacity.addr = alloca i32, align 4
  %findStatus = alloca i32, align 4
  store ptr %destBuf, ptr %destBuf.addr, align 8
  store i32 %destCapacity, ptr %destCapacity.addr, align 4
  %0 = load i32, ptr %status, align 4
  %cmp.i.i = icmp slt i32 %0, 1
  br i1 %cmp.i.i, label %if.end.i, label %return

if.end.i:                                         ; preds = %entry
  %cmp.i = icmp eq ptr %regexp2, null
  br i1 %cmp.i, label %return.sink.split, label %lor.lhs.false.i

lor.lhs.false.i:                                  ; preds = %if.end.i
  %1 = load i32, ptr %regexp2, align 8
  %cmp1.not.i = icmp eq i32 %1, 1919252592
  br i1 %cmp1.not.i, label %if.end3.i, label %return.sink.split

if.end3.i:                                        ; preds = %lor.lhs.false.i
  %fText.i = getelementptr inbounds i8, ptr %regexp2, i64 48
  %2 = load ptr, ptr %fText.i, align 8
  %cmp5.i = icmp eq ptr %2, null
  br i1 %cmp5.i, label %land.lhs.true6.i, label %if.end

land.lhs.true6.i:                                 ; preds = %if.end3.i
  %fOwnsText.i = getelementptr inbounds i8, ptr %regexp2, i64 60
  %3 = load i8, ptr %fOwnsText.i, align 4
  %tobool7.not.i = icmp eq i8 %3, 0
  br i1 %tobool7.not.i, label %return.sink.split, label %if.end

if.end:                                           ; preds = %land.lhs.true6.i, %if.end3.i
  %cmp1 = icmp eq ptr %replacementText, null
  %cmp2 = icmp slt i32 %replacementLength, -1
  %or.cond = or i1 %cmp1, %cmp2
  br i1 %or.cond, label %return.sink.split, label %lor.lhs.false3

lor.lhs.false3:                                   ; preds = %if.end
  %cmp4 = icmp eq ptr %destBuf, null
  %cmp5 = icmp sgt i32 %destCapacity, 0
  %or.cond1 = and i1 %cmp4, %cmp5
  %cmp7 = icmp slt i32 %destCapacity, 0
  %or.cond2 = or i1 %cmp7, %or.cond1
  br i1 %or.cond2, label %return.sink.split, label %if.end3.i.i.i

if.end3.i.i.i:                                    ; preds = %lor.lhs.false3
  br i1 %cmp5.i, label %land.lhs.true6.i.i.i, label %uregex_reset_75.exit

land.lhs.true6.i.i.i:                             ; preds = %if.end3.i.i.i
  %fOwnsText.i.i.i = getelementptr inbounds i8, ptr %regexp2, i64 60
  %4 = load i8, ptr %fOwnsText.i.i.i, align 4
  %tobool7.not.i.i.i = icmp eq i8 %4, 0
  br i1 %tobool7.not.i.i.i, label %uregex_reset_75.exit.thread, label %uregex_reset_75.exit

uregex_reset_75.exit.thread:                      ; preds = %land.lhs.true6.i.i.i
  store i32 66306, ptr %status, align 4
  store i32 66306, ptr %findStatus, align 4
  br label %while.end

uregex_reset_75.exit:                             ; preds = %if.end3.i.i.i, %land.lhs.true6.i.i.i
  %fMatcher.i.i = getelementptr inbounds i8, ptr %regexp2, i64 40
  %5 = load ptr, ptr %fMatcher.i.i, align 8
  %call1.i.i = tail call noundef nonnull align 8 dereferenceable(336) ptr @_ZN6icu_7512RegexMatcher5resetElR10UErrorCode(ptr noundef nonnull align 8 dereferenceable(336) %5, i64 noundef 0, ptr noundef nonnull align 4 dereferenceable(4) %status)
  %.pre = load i32, ptr %status, align 4
  store i32 %.pre, ptr %findStatus, align 4
  %cmp.i.i.i1730 = icmp slt i32 %.pre, 1
  br i1 %cmp.i.i.i1730, label %lor.lhs.false.i.i.lr.ph, label %while.end

lor.lhs.false.i.i.lr.ph:                          ; preds = %uregex_reset_75.exit
  %fOwnsText.i.i = getelementptr inbounds i8, ptr %regexp2, i64 60
  %fMatcher.i = getelementptr inbounds i8, ptr %regexp2, i64 40
  br label %lor.lhs.false.i.i

lor.lhs.false.i.i:                                ; preds = %lor.lhs.false.i.i.lr.ph, %while.body
  %len.031 = phi i32 [ 0, %lor.lhs.false.i.i.lr.ph ], [ %add, %while.body ]
  %6 = load i32, ptr %regexp2, align 8
  %cmp1.not.i.i = icmp eq i32 %6, 1919252592
  br i1 %cmp1.not.i.i, label %if.end3.i.i, label %return.sink.split.i.i

if.end3.i.i:                                      ; preds = %lor.lhs.false.i.i
  %7 = load ptr, ptr %fText.i, align 8
  %cmp5.i.i = icmp eq ptr %7, null
  br i1 %cmp5.i.i, label %land.lhs.true6.i.i, label %uregex_findNext_75.exit

land.lhs.true6.i.i:                               ; preds = %if.end3.i.i
  %8 = load i8, ptr %fOwnsText.i.i, align 4
  %tobool7.not.i.i = icmp eq i8 %8, 0
  br i1 %tobool7.not.i.i, label %return.sink.split.i.i, label %uregex_findNext_75.exit

return.sink.split.i.i:                            ; preds = %land.lhs.true6.i.i, %lor.lhs.false.i.i
  %.sink.i.i = phi i32 [ 1, %lor.lhs.false.i.i ], [ 66306, %land.lhs.true6.i.i ]
  store i32 %.sink.i.i, ptr %findStatus, align 4
  br label %while.end

uregex_findNext_75.exit:                          ; preds = %if.end3.i.i, %land.lhs.true6.i.i
  %9 = load ptr, ptr %fMatcher.i, align 8
  %call1.i = call noundef signext i8 @_ZN6icu_7512RegexMatcher4findER10UErrorCode(ptr noundef nonnull align 8 dereferenceable(336) %9, ptr noundef nonnull align 4 dereferenceable(4) %findStatus)
  %tobool.not = icmp eq i8 %call1.i, 0
  br i1 %tobool.not, label %while.end, label %while.body

while.body:                                       ; preds = %uregex_findNext_75.exit
  %call.i = call noundef i32 @_ZN6icu_7510RegexCImpl17appendReplacementEPNS_17RegularExpressionEPKDsiPPDsPiP10UErrorCode(ptr noundef nonnull %regexp2, ptr noundef %replacementText, i32 noundef %replacementLength, ptr noundef nonnull %destBuf.addr, ptr noundef nonnull %destCapacity.addr, ptr noundef nonnull %status)
  %add = add nsw i32 %call.i, %len.031
  %.pr = load i32, ptr %findStatus, align 4
  %cmp.i.i.i17 = icmp slt i32 %.pr, 1
  br i1 %cmp.i.i.i17, label %lor.lhs.false.i.i, label %while.end, !llvm.loop !4

while.end:                                        ; preds = %uregex_findNext_75.exit, %while.body, %uregex_reset_75.exit.thread, %uregex_reset_75.exit, %return.sink.split.i.i
  %len.029 = phi i32 [ %len.031, %return.sink.split.i.i ], [ 0, %uregex_reset_75.exit ], [ 0, %uregex_reset_75.exit.thread ], [ %len.031, %uregex_findNext_75.exit ], [ %add, %while.body ]
  %call.i22 = call noundef i32 @_ZN6icu_7510RegexCImpl10appendTailEPNS_17RegularExpressionEPPDsPiP10UErrorCode(ptr noundef nonnull %regexp2, ptr noundef nonnull %destBuf.addr, ptr noundef nonnull %destCapacity.addr, ptr noundef nonnull %status)
  %add13 = add nsw i32 %call.i22, %len.029
  %10 = load i32, ptr %findStatus, align 4
  %cmp.i23 = icmp slt i32 %10, 1
  br i1 %cmp.i23, label %return, label %return.sink.split

return.sink.split:                                ; preds = %while.end, %if.end, %lor.lhs.false3, %if.end.i, %lor.lhs.false.i, %land.lhs.true6.i
  %.sink.i.sink = phi i32 [ 1, %lor.lhs.false.i ], [ 1, %if.end.i ], [ 66306, %land.lhs.true6.i ], [ 1, %lor.lhs.false3 ], [ 1, %if.end ], [ %10, %while.end ]
  %retval.0.ph = phi i32 [ 0, %lor.lhs.false.i ], [ 0, %if.end.i ], [ 0, %land.lhs.true6.i ], [ 0, %lor.lhs.false3 ], [ 0, %if.end ], [ %add13, %while.end ]
  store i32 %.sink.i.sink, ptr %status, align 4
  br label %return

return:                                           ; preds = %return.sink.split, %entry, %while.end
  %retval.0 = phi i32 [ %add13, %while.end ], [ 0, %entry ], [ %retval.0.ph, %return.sink.split ]
  ret i32 %retval.0
}